target datalayout = "e-m:e-p270:32:32-p271:32:32-p272:64:64-i64:64-i128:128-f80:128-n8:16:32:64-S128"
target triple = "x86_64-pc-linux-gnu"

%struct.pkcs7_signer_info_st = type { ptr, ptr, ptr, ptr, ptr, ptr, ptr, ptr, ptr }
%struct.X509_algor_st = type { ptr, ptr }
%struct.pkcs7_issuer_and_serial_st = type { ptr, ptr }
%struct.evp_pkey_st = type { i32, i32, ptr, ptr, ptr, %union.legacy_pkey_st, %union.legacy_pkey_st, %struct.CRYPTO_REF_COUNT, ptr, ptr, i32, i8, %struct.crypto_ex_data_st, ptr, ptr, i64, ptr, i64, %struct.anon }
%union.legacy_pkey_st = type { ptr }
%struct.CRYPTO_REF_COUNT = type { i32 }
%struct.crypto_ex_data_st = type { ptr, ptr }
%struct.anon = type { i32, i32, i32 }
%struct.evp_pkey_asn1_method_st = type { i32, i32, i64, ptr, ptr, ptr, ptr, ptr, ptr, ptr, ptr, ptr, ptr, ptr, ptr, ptr, ptr, ptr, ptr, ptr, ptr, ptr, ptr, ptr, ptr, ptr, ptr, ptr, ptr, ptr, ptr, ptr, ptr, ptr, ptr, ptr, ptr, ptr, ptr, ptr, ptr }

@.str = private unnamed_addr constant [34 x i8] c"../openssl/crypto/pkcs7/pk7_lib.c\00", align 1
@.str.1 = private unnamed_addr constant [3 x i8] c"EC\00", align 1
@.str.2 = private unnamed_addr constant [4 x i8] c"DSA\00", align 1
@.str.3 = private unnamed_addr constant [4 x i8] c"RSA\00", align 1
@__func__.PKCS7_SIGNER_INFO_set = private unnamed_addr constant [22 x i8] c"PKCS7_SIGNER_INFO_set\00", align 1

; Function Attrs: nounwind uwtable
define void @PKCS7_SIGNER_INFO_get0_algs(ptr noundef %0, ptr noundef %1, ptr noundef %2, ptr noundef %3) #0 {
  %5 = alloca ptr, align 8
  %6 = alloca ptr, align 8
  %7 = alloca ptr, align 8
  %8 = alloca ptr, align 8
  store ptr %0, ptr %5, align 8, !tbaa !52
  store ptr %1, ptr %6, align 8, !tbaa !124
  store ptr %2, ptr %7, align 8, !tbaa !126
  store ptr %3, ptr %8, align 8, !tbaa !126
  %9 = load ptr, ptr %6, align 8, !tbaa !124
  %10 = icmp ne ptr %9, null
  br i1 %10, label %11, label %16

11:                                               ; preds = %4
  %12 = load ptr, ptr %5, align 8, !tbaa !52
  %13 = getelementptr inbounds nuw %struct.pkcs7_signer_info_st, ptr %12, i32 0, i32 7
  %14 = load ptr, ptr %13, align 8, !tbaa !91
  %15 = load ptr, ptr %6, align 8, !tbaa !124
  store ptr %14, ptr %15, align 8, !tbaa !83
  br label %16

16:                                               ; preds = %11, %4
  %17 = load ptr, ptr %7, align 8, !tbaa !126
  %18 = icmp ne ptr %17, null
  br i1 %18, label %19, label %24

19:                                               ; preds = %16
  %20 = load ptr, ptr %5, align 8, !tbaa !52
  %21 = getelementptr inbounds nuw %struct.pkcs7_signer_info_st, ptr %20, i32 0, i32 2
  %22 = load ptr, ptr %21, align 8, !tbaa !60
  %23 = load ptr, ptr %7, align 8, !tbaa !126
  store ptr %22, ptr %23, align 8, !tbaa !67
  br label %24

24:                                               ; preds = %19, %16
  %25 = load ptr, ptr %8, align 8, !tbaa !126
  %26 = icmp ne ptr %25, null
  br i1 %26, label %27, label %32

27:                                               ; preds = %24
  %28 = load ptr, ptr %5, align 8, !tbaa !52
  %29 = getelementptr inbounds nuw %struct.pkcs7_signer_info_st, ptr %28, i32 0, i32 4
  %30 = load ptr, ptr %29, align 8, !tbaa !128
  %31 = load ptr, ptr %8, align 8, !tbaa !126
  store ptr %30, ptr %31, align 8, !tbaa !67
  br label %32

32:                                               ; preds = %27, %24
  ret void
}

; Function Attrs: nounwind uwtable
define internal i32 @pkcs7_ecdsa_or_dsa_sign_verify_setup(ptr noundef %0, i32 noundef %1) #0 {
  %3 = alloca i32, align 4
  %4 = alloca ptr, align 8
  %5 = alloca i32, align 4
  %6 = alloca i32, align 4
  %7 = alloca i32, align 4
  %8 = alloca ptr, align 8
  %9 = alloca ptr, align 8
  %10 = alloca ptr, align 8
  %11 = alloca i32, align 4
  store ptr %0, ptr %4, align 8, !tbaa !52
  store i32 %1, ptr %5, align 4, !tbaa !8
  %12 = load i32, ptr %5, align 4, !tbaa !8
  %13 = icmp ne i32 %12, 0
  br i1 %13, label %48, label %14

14:                                               ; preds = %2
  call void @llvm.lifetime.start.p0(i64 4, ptr %6) #4
  call void @llvm.lifetime.start.p0(i64 4, ptr %7) #4
  call void @llvm.lifetime.start.p0(i64 8, ptr %8) #4
  call void @llvm.lifetime.start.p0(i64 8, ptr %9) #4
  call void @llvm.lifetime.start.p0(i64 8, ptr %10) #4
  %15 = load ptr, ptr %4, align 8, !tbaa !52
  %16 = getelementptr inbounds nuw %struct.pkcs7_signer_info_st, ptr %15, i32 0, i32 7
  %17 = load ptr, ptr %16, align 8, !tbaa !91
  store ptr %17, ptr %10, align 8, !tbaa !83
  %18 = load ptr, ptr %4, align 8, !tbaa !52
  call void @PKCS7_SIGNER_INFO_get0_algs(ptr noundef %18, ptr noundef null, ptr noundef %8, ptr noundef %9)
  %19 = load ptr, ptr %8, align 8, !tbaa !67
  %20 = icmp eq ptr %19, null
  br i1 %20, label %26, label %21

21:                                               ; preds = %14
  %22 = load ptr, ptr %8, align 8, !tbaa !67
  %23 = getelementptr inbounds nuw %struct.X509_algor_st, ptr %22, i32 0, i32 0
  %24 = load ptr, ptr %23, align 8, !tbaa !65
  %25 = icmp eq ptr %24, null
  br i1 %25, label %26, label %27

26:                                               ; preds = %21, %14
  store i32 -1, ptr %3, align 4
  store i32 1, ptr %11, align 4
  br label %47

27:                                               ; preds = %21
  %28 = load ptr, ptr %8, align 8, !tbaa !67
  %29 = getelementptr inbounds nuw %struct.X509_algor_st, ptr %28, i32 0, i32 0
  %30 = load ptr, ptr %29, align 8, !tbaa !65
  %31 = call i32 @OBJ_obj2nid(ptr noundef %30)
  store i32 %31, ptr %7, align 4, !tbaa !8
  %32 = load i32, ptr %7, align 4, !tbaa !8
  %33 = icmp eq i32 %32, 0
  br i1 %33, label %34, label %35

34:                                               ; preds = %27
  store i32 -1, ptr %3, align 4
  store i32 1, ptr %11, align 4
  br label %47

35:                                               ; preds = %27
  %36 = load i32, ptr %7, align 4, !tbaa !8
  %37 = load ptr, ptr %10, align 8, !tbaa !83
  %38 = call i32 @EVP_PKEY_get_id(ptr noundef %37)
  %39 = call i32 @OBJ_find_sigid_by_algs(ptr noundef %6, i32 noundef %36, i32 noundef %38)
  %40 = icmp ne i32 %39, 0
  br i1 %40, label %42, label %41

41:                                               ; preds = %35
  store i32 -1, ptr %3, align 4
  store i32 1, ptr %11, align 4
  br label %47

42:                                               ; preds = %35
  %43 = load ptr, ptr %9, align 8, !tbaa !67
  %44 = load i32, ptr %6, align 4, !tbaa !8
  %45 = call ptr @OBJ_nid2obj(i32 noundef %44)
  %46 = call i32 @X509_ALGOR_set0(ptr noundef %43, ptr noundef %45, i32 noundef -1, ptr noundef null)
  store i32 %46, ptr %3, align 4
  store i32 1, ptr %11, align 4
  br label %47

47:                                               ; preds = %42, %41, %34, %26
  call void @llvm.lifetime.end.p0(i64 8, ptr %10) #4
  call void @llvm.lifetime.end.p0(i64 8, ptr %9) #4
  call void @llvm.lifetime.end.p0(i64 8, ptr %8) #4
  call void @llvm.lifetime.end.p0(i64 4, ptr %7) #4
  call void @llvm.lifetime.end.p0(i64 4, ptr %6) #4
  br label %49

48:                                               ; preds = %2
  store i32 1, ptr %3, align 4
  br label %49

49:                                               ; preds = %48, %47
  %50 = load i32, ptr %3, align 4
  ret i32 %50
}

; Function Attrs: nounwind uwtable
define i32 @PKCS7_SIGNER_INFO_set(ptr noundef %0, ptr noundef %1, ptr noundef %2, ptr noundef %3) #0 {
  %5 = alloca i32, align 4
  %6 = alloca ptr, align 8
  %7 = alloca ptr, align 8
  %8 = alloca ptr, align 8
  %9 = alloca ptr, align 8
  %10 = alloca i32, align 4
  %11 = alloca i32, align 4
  store ptr %0, ptr %6, align 8, !tbaa !52
  store ptr %1, ptr %7, align 8, !tbaa !74
  store ptr %2, ptr %8, align 8, !tbaa !83
  store ptr %3, ptr %9, align 8, !tbaa !84
  call void @llvm.lifetime.start.p0(i64 4, ptr %10) #4
  %12 = load ptr, ptr %6, align 8, !tbaa !52
  %13 = getelementptr inbounds nuw %struct.pkcs7_signer_info_st, ptr %12, i32 0, i32 0
  %14 = load ptr, ptr %13, align 8, !tbaa !86
  %15 = call i32 @ASN1_INTEGER_set(ptr noundef %14, i64 noundef 1)
  %16 = icmp ne i32 %15, 0
  br i1 %16, label %18, label %17

17:                                               ; preds = %4
  store i32 0, ptr %5, align 4
  store i32 1, ptr %11, align 4
  br label %106

18:                                               ; preds = %4
  %19 = load ptr, ptr %6, align 8, !tbaa !52
  %20 = getelementptr inbounds nuw %struct.pkcs7_signer_info_st, ptr %19, i32 0, i32 1
  %21 = load ptr, ptr %20, align 8, !tbaa !87
  %22 = getelementptr inbounds nuw %struct.pkcs7_issuer_and_serial_st, ptr %21, i32 0, i32 0
  %23 = load ptr, ptr %7, align 8, !tbaa !74
  %24 = call ptr @X509_get_issuer_name(ptr noundef %23)
  %25 = call i32 @X509_NAME_set(ptr noundef %22, ptr noundef %24)
  %26 = icmp ne i32 %25, 0
  br i1 %26, label %28, label %27

27:                                               ; preds = %18
  store i32 0, ptr %5, align 4
  store i32 1, ptr %11, align 4
  br label %106

28:                                               ; preds = %18
  %29 = load ptr, ptr %6, align 8, !tbaa !52
  %30 = getelementptr inbounds nuw %struct.pkcs7_signer_info_st, ptr %29, i32 0, i32 1
  %31 = load ptr, ptr %30, align 8, !tbaa !87
  %32 = getelementptr inbounds nuw %struct.pkcs7_issuer_and_serial_st, ptr %31, i32 0, i32 1
  %33 = load ptr, ptr %32, align 8, !tbaa !88
  call void @ASN1_INTEGER_free(ptr noundef %33)
  %34 = load ptr, ptr %7, align 8, !tbaa !74
  %35 = call ptr @X509_get0_serialNumber(ptr noundef %34)
  %36 = call ptr @ASN1_INTEGER_dup(ptr noundef %35)
  %37 = load ptr, ptr %6, align 8, !tbaa !52
  %38 = getelementptr inbounds nuw %struct.pkcs7_signer_info_st, ptr %37, i32 0, i32 1
  %39 = load ptr, ptr %38, align 8, !tbaa !87
  %40 = getelementptr inbounds nuw %struct.pkcs7_issuer_and_serial_st, ptr %39, i32 0, i32 1
  store ptr %36, ptr %40, align 8, !tbaa !88
  %41 = icmp ne ptr %36, null
  br i1 %41, label %43, label %42

42:                                               ; preds = %28
  store i32 0, ptr %5, align 4
  store i32 1, ptr %11, align 4
  br label %106

43:                                               ; preds = %28
  %44 = load ptr, ptr %8, align 8, !tbaa !83
  %45 = call i32 @EVP_PKEY_up_ref(ptr noundef %44)
  %46 = load ptr, ptr %8, align 8, !tbaa !83
  %47 = load ptr, ptr %6, align 8, !tbaa !52
  %48 = getelementptr inbounds nuw %struct.pkcs7_signer_info_st, ptr %47, i32 0, i32 7
  store ptr %46, ptr %48, align 8, !tbaa !91
  %49 = load ptr, ptr %6, align 8, !tbaa !52
  %50 = getelementptr inbounds nuw %struct.pkcs7_signer_info_st, ptr %49, i32 0, i32 2
  %51 = load ptr, ptr %50, align 8, !tbaa !60
  %52 = load ptr, ptr %9, align 8, !tbaa !84
  %53 = call i32 @EVP_MD_get_type(ptr noundef %52)
  %54 = call ptr @OBJ_nid2obj(i32 noundef %53)
  %55 = call i32 @X509_ALGOR_set0(ptr noundef %51, ptr noundef %54, i32 noundef 5, ptr noundef null)
  %56 = icmp ne i32 %55, 0
  br i1 %56, label %58, label %57

57:                                               ; preds = %43
  store i32 0, ptr %5, align 4
  store i32 1, ptr %11, align 4
  br label %106

58:                                               ; preds = %43
  %59 = load ptr, ptr %8, align 8, !tbaa !83
  %60 = call i32 @EVP_PKEY_is_a(ptr noundef %59, ptr noundef @.str.1)
  %61 = icmp ne i32 %60, 0
  br i1 %61, label %66, label %62

62:                                               ; preds = %58
  %63 = load ptr, ptr %8, align 8, !tbaa !83
  %64 = call i32 @EVP_PKEY_is_a(ptr noundef %63, ptr noundef @.str.2)
  %65 = icmp ne i32 %64, 0
  br i1 %65, label %66, label %69

66:                                               ; preds = %62, %58
  %67 = load ptr, ptr %6, align 8, !tbaa !52
  %68 = call i32 @pkcs7_ecdsa_or_dsa_sign_verify_setup(ptr noundef %67, i32 noundef 0)
  store i32 %68, ptr %5, align 4
  store i32 1, ptr %11, align 4
  br label %106

69:                                               ; preds = %62
  %70 = load ptr, ptr %8, align 8, !tbaa !83
  %71 = call i32 @EVP_PKEY_is_a(ptr noundef %70, ptr noundef @.str.3)
  %72 = icmp ne i32 %71, 0
  br i1 %72, label %73, label %76

73:                                               ; preds = %69
  %74 = load ptr, ptr %6, align 8, !tbaa !52
  %75 = call i32 @pkcs7_rsa_sign_verify_setup(ptr noundef %74, i32 noundef 0)
  store i32 %75, ptr %5, align 4
  store i32 1, ptr %11, align 4
  br label %106

76:                                               ; preds = %69
  %77 = load ptr, ptr %8, align 8, !tbaa !83
  %78 = getelementptr inbounds nuw %struct.evp_pkey_st, ptr %77, i32 0, i32 2
  %79 = load ptr, ptr %78, align 8, !tbaa !92
  %80 = icmp ne ptr %79, null
  br i1 %80, label %81, label %105

81:                                               ; preds = %76
  %82 = load ptr, ptr %8, align 8, !tbaa !83
  %83 = getelementptr inbounds nuw %struct.evp_pkey_st, ptr %82, i32 0, i32 2
  %84 = load ptr, ptr %83, align 8, !tbaa !92
  %85 = getelementptr inbounds nuw %struct.evp_pkey_asn1_method_st, ptr %84, i32 0, i32 23
  %86 = load ptr, ptr %85, align 8, !tbaa !102
  %87 = icmp ne ptr %86, null
  br i1 %87, label %88, label %105

88:                                               ; preds = %81
  %89 = load ptr, ptr %8, align 8, !tbaa !83
  %90 = getelementptr inbounds nuw %struct.evp_pkey_st, ptr %89, i32 0, i32 2
  %91 = load ptr, ptr %90, align 8, !tbaa !92
  %92 = getelementptr inbounds nuw %struct.evp_pkey_asn1_method_st, ptr %91, i32 0, i32 23
  %93 = load ptr, ptr %92, align 8, !tbaa !102
  %94 = load ptr, ptr %8, align 8, !tbaa !83
  %95 = load ptr, ptr %6, align 8, !tbaa !52
  %96 = call i32 %93(ptr noundef %94, i32 noundef 1, i64 noundef 0, ptr noundef %95)
  store i32 %96, ptr %10, align 4, !tbaa !8
  %97 = load i32, ptr %10, align 4, !tbaa !8
  %98 = icmp sgt i32 %97, 0
  br i1 %98, label %99, label %100

99:                                               ; preds = %88
  store i32 1, ptr %5, align 4
  store i32 1, ptr %11, align 4
  br label %106

100:                                              ; preds = %88
  %101 = load i32, ptr %10, align 4, !tbaa !8
  %102 = icmp ne i32 %101, -2
  br i1 %102, label %103, label %104

103:                                              ; preds = %100
  call void @ERR_new()
  call void @ERR_set_debug(ptr noundef @.str, i32 noundef 385, ptr noundef @__func__.PKCS7_SIGNER_INFO_set)
  call void (i32, i32, ptr, ...) @ERR_set_error(i32 noundef 33, i32 noundef 147, ptr noundef null)
  store i32 0, ptr %5, align 4
  store i32 1, ptr %11, align 4
  br label %106

104:                                              ; preds = %100
  br label %105

105:                                              ; preds = %104, %81, %76
  call void @ERR_new()
  call void @ERR_set_debug(ptr noundef @.str, i32 noundef 389, ptr noundef @__func__.PKCS7_SIGNER_INFO_set)
  call void (i32, i32, ptr, ...) @ERR_set_error(i32 noundef 33, i32 noundef 148, ptr noundef null)
  store i32 0, ptr %5, align 4
  store i32 1, ptr %11, align 4
  br label %106

106:                                              ; preds = %105, %103, %99, %73, %66, %57, %42, %27, %17
  call void @llvm.lifetime.end.p0(i64 4, ptr %10) #4
  %107 = load i32, ptr %5, align 4
  ret i32 %107
}