; Function Attrs: nounwind uwtable
define i32 @PKCS7_SIGNER_INFO_set(ptr noundef %0, ptr noundef %1, ptr noundef %2, ptr noundef %3) local_unnamed_addr #0 {
  %5 = alloca i32, align 4
  %6 = load ptr, ptr %0, align 8, !tbaa !61
  %7 = tail call i32 @ASN1_INTEGER_set(ptr noundef %6, i64 noundef 1) #7
  %.not = icmp eq i32 %7, 0
  br i1 %.not, label %69, label %8

8:                                                ; preds = %4
  %9 = getelementptr inbounds nuw i8, ptr %0, i64 8
  %10 = load ptr, ptr %9, align 8, !tbaa !62
  %11 = tail call ptr @X509_get_issuer_name(ptr noundef %1) #7
  %12 = tail call i32 @X509_NAME_set(ptr noundef %10, ptr noundef %11) #7
  %.not26 = icmp eq i32 %12, 0
  br i1 %.not26, label %69, label %13

13:                                               ; preds = %8
  %14 = load ptr, ptr %9, align 8, !tbaa !62
  %15 = getelementptr inbounds nuw i8, ptr %14, i64 8
  %16 = load ptr, ptr %15, align 8, !tbaa !63
  tail call void @ASN1_INTEGER_free(ptr noundef %16) #7
  %17 = tail call ptr @X509_get0_serialNumber(ptr noundef %1) #7
  %18 = tail call ptr @ASN1_INTEGER_dup(ptr noundef %17) #7
  %19 = load ptr, ptr %9, align 8, !tbaa !62
  %20 = getelementptr inbounds nuw i8, ptr %19, i64 8
  store ptr %18, ptr %20, align 8, !tbaa !63
  %.not27 = icmp eq ptr %18, null
  br i1 %.not27, label %69, label %21

21:                                               ; preds = %13
  %22 = tail call i32 @EVP_PKEY_up_ref(ptr noundef %2) #7
  %23 = getelementptr inbounds nuw i8, ptr %0, i64 56
  store ptr %2, ptr %23, align 8, !tbaa !66
  %24 = getelementptr inbounds nuw i8, ptr %0, i64 16
  %25 = load ptr, ptr %24, align 8, !tbaa !46
  %26 = tail call i32 @EVP_MD_get_type(ptr noundef %3) #7
  %27 = tail call ptr @OBJ_nid2obj(i32 noundef %26) #7
  %28 = tail call i32 @X509_ALGOR_set0(ptr noundef %25, ptr noundef %27, i32 noundef 5, ptr noundef null) #7
  %.not28 = icmp eq i32 %28, 0
  br i1 %.not28, label %69, label %29

29:                                               ; preds = %21
  %30 = tail call i32 @EVP_PKEY_is_a(ptr noundef %2, ptr noundef nonnull @.str.1) #7
  %.not29 = icmp eq i32 %30, 0
  br i1 %.not29, label %31, label %33

31:                                               ; preds = %29
  %32 = tail call i32 @EVP_PKEY_is_a(ptr noundef %2, ptr noundef nonnull @.str.2) #7
  %.not30 = icmp eq i32 %32, 0
  br i1 %.not30, label %52, label %33

33:                                               ; preds = %31, %29
  call void @llvm.lifetime.start.p0(i64 4, ptr nonnull %5) #7
  %34 = load ptr, ptr %23, align 8, !tbaa !66
  %35 = load ptr, ptr %24, align 8, !tbaa !46
  %36 = getelementptr inbounds nuw i8, ptr %0, i64 32
  %37 = load ptr, ptr %36, align 8, !tbaa !67
  %38 = icmp eq ptr %35, null
  br i1 %38, label %pkcs7_ecdsa_or_dsa_sign_verify_setup.exit, label %39

39:                                               ; preds = %33
  %40 = load ptr, ptr %35, align 8, !tbaa !51
  %41 = icmp eq ptr %40, null
  br i1 %41, label %pkcs7_ecdsa_or_dsa_sign_verify_setup.exit, label %42

42:                                               ; preds = %39
  %43 = tail call i32 @OBJ_obj2nid(ptr noundef nonnull %40) #7
  %44 = icmp eq i32 %43, 0
  br i1 %44, label %pkcs7_ecdsa_or_dsa_sign_verify_setup.exit, label %45

45:                                               ; preds = %42
  %46 = tail call i32 @EVP_PKEY_get_id(ptr noundef %34) #7
  %47 = call i32 @OBJ_find_sigid_by_algs(ptr noundef nonnull %5, i32 noundef %43, i32 noundef %46) #7
  %.not.i = icmp eq i32 %47, 0
  br i1 %.not.i, label %pkcs7_ecdsa_or_dsa_sign_verify_setup.exit, label %48

48:                                               ; preds = %45
  %49 = load i32, ptr %5, align 4, !tbaa !68
  %50 = call ptr @OBJ_nid2obj(i32 noundef %49) #7
  %51 = call i32 @X509_ALGOR_set0(ptr noundef %37, ptr noundef %50, i32 noundef -1, ptr noundef null) #7
  br label %pkcs7_ecdsa_or_dsa_sign_verify_setup.exit

pkcs7_ecdsa_or_dsa_sign_verify_setup.exit:        ; preds = %33, %39, %42, %45, %48
  %.0.i = phi i32 [ %51, %48 ], [ -1, %39 ], [ -1, %33 ], [ -1, %42 ], [ -1, %45 ]
  call void @llvm.lifetime.end.p0(i64 4, ptr nonnull %5) #7
  br label %69

52:                                               ; preds = %31
  %53 = tail call i32 @EVP_PKEY_is_a(ptr noundef %2, ptr noundef nonnull @.str.3) #7
  %.not31 = icmp eq i32 %53, 0
  br i1 %.not31, label %57, label %54

54:                                               ; preds = %52
  %55 = getelementptr i8, ptr %0, i64 32
  %.val = load ptr, ptr %55, align 8, !tbaa !67
  %56 = tail call fastcc i32 @pkcs7_rsa_sign_verify_setup(ptr %.val)
  br label %69

57:                                               ; preds = %52
  %58 = getelementptr inbounds nuw i8, ptr %2, i64 8
  %59 = load ptr, ptr %58, align 8, !tbaa !69
  %.not32 = icmp eq ptr %59, null
  br i1 %.not32, label %68, label %60

60:                                               ; preds = %57
  %61 = getelementptr inbounds nuw i8, ptr %59, i64 176
  %62 = load ptr, ptr %61, align 8, !tbaa !79
  %.not33 = icmp eq ptr %62, null
  br i1 %.not33, label %68, label %63

63:                                               ; preds = %60
  %64 = tail call i32 %62(ptr noundef nonnull %2, i32 noundef 1, i64 noundef 0, ptr noundef nonnull %0) #7
  %65 = icmp sgt i32 %64, 0
  br i1 %65, label %69, label %66

66:                                               ; preds = %63
  %.not34 = icmp eq i32 %64, -2
  br i1 %.not34, label %68, label %67

67:                                               ; preds = %66
  tail call void @ERR_new() #7
  tail call void @ERR_set_debug(ptr noundef nonnull @.str, i32 noundef 385, ptr noundef nonnull @__func__.PKCS7_SIGNER_INFO_set) #7
  tail call void (i32, i32, ptr, ...) @ERR_set_error(i32 noundef 33, i32 noundef 147, ptr noundef null) #7
  br label %69

68:                                               ; preds = %66, %60, %57
  tail call void @ERR_new() #7
  tail call void @ERR_set_debug(ptr noundef nonnull @.str, i32 noundef 389, ptr noundef nonnull @__func__.PKCS7_SIGNER_INFO_set) #7
  tail call void (i32, i32, ptr, ...) @ERR_set_error(i32 noundef 33, i32 noundef 148, ptr noundef null) #7
  br label %69

69:                                               ; preds = %63, %21, %13, %8, %4, %68, %67, %54, %pkcs7_ecdsa_or_dsa_sign_verify_setup.exit
  %.0 = phi i32 [ %.0.i, %pkcs7_ecdsa_or_dsa_sign_verify_setup.exit ], [ %56, %54 ], [ 0, %67 ], [ 0, %68 ], [ 0, %4 ], [ 0, %8 ], [ 0, %13 ], [ 0, %21 ], [ 1, %63 ]
  ret i32 %.0
}